; Function Attrs: mustprogress uwtable
define internal noundef nonnull ptr @_ZN7doctest6detail15reporterCreatorINS_12_GLOBAL__N_111XmlReporterEEEPNS_9IReporterERKNS_14ContextOptionsE(ptr noundef nonnull align 8 dereferenceable(135) %0) #8 personality ptr @__gxx_personality_v0 {
  %2 = tail call noalias noundef nonnull dereferenceable(136) ptr @_Znwm(i64 noundef 136) #51
  store ptr getelementptr inbounds nuw inrange(-16, 112) (i8, ptr @_ZTVN7doctest12_GLOBAL__N_111XmlReporterE, i64 16), ptr %2, align 8, !tbaa !31
  %3 = getelementptr inbounds nuw i8, ptr %2, i64 8
  %4 = load ptr, ptr %0, align 8, !tbaa !319
  store i8 0, ptr %3, align 8, !tbaa !459
  %5 = getelementptr inbounds nuw i8, ptr %2, i64 9
  store i8 0, ptr %5, align 1, !tbaa !466
  %6 = getelementptr inbounds nuw i8, ptr %2, i64 16
  tail call void @llvm.memset.p0.i64(ptr noundef nonnull align 8 dereferenceable(24) %6, i8 0, i64 24, i1 false)
  %7 = getelementptr inbounds nuw i8, ptr %2, i64 40
  %8 = getelementptr inbounds nuw i8, ptr %2, i64 56
  store ptr %8, ptr %7, align 8, !tbaa !239
  %9 = getelementptr inbounds nuw i8, ptr %2, i64 48
  store i64 0, ptr %9, align 8, !tbaa !37
  store i8 0, ptr %8, align 1, !tbaa !38
  %10 = getelementptr inbounds nuw i8, ptr %2, i64 72
  store ptr %4, ptr %10, align 8, !tbaa !467
  %11 = getelementptr inbounds nuw i8, ptr %2, i64 80
  tail call void @llvm.memset.p0.i64(ptr noundef nonnull align 8 dereferenceable(40) %11, i8 0, i64 40, i1 false)
  %12 = getelementptr inbounds nuw i8, ptr %2, i64 120
  store ptr %0, ptr %12, align 8, !tbaa !468
  %13 = getelementptr inbounds nuw i8, ptr %2, i64 128
  store ptr null, ptr %13, align 8, !tbaa !470
  ret ptr %2
}